target datalayout = "e-m:e-p270:32:32-p271:32:32-p272:64:64-i64:64-i128:128-f80:128-n8:16:32:64-S128"
target triple = "x86_64-pc-linux-gnu"

%struct.mbedtls_asn1_buf = type { i32, i64, ptr }
%struct.mbedtls_pk_context = type { ptr, ptr }

@.str = private unnamed_addr constant [131 x i8] c"generated/home/dtcxzyw/WorkSpace/Projects/compilers/llvm-opt-benchmark/bench/duckdb/duckdb/third_party/mbedtls/library/pkparse.cpp\00", align 1

; Function Attrs: inlinehint mustprogress nounwind uwtable
define internal noundef ptr @_ZL14mbedtls_pk_rsa18mbedtls_pk_context(ptr %0, ptr %1) #3 {
  %3 = alloca %struct.mbedtls_pk_context, align 8
  %4 = getelementptr inbounds nuw { ptr, ptr }, ptr %3, i32 0, i32 0
  store ptr %0, ptr %4, align 8
  %5 = getelementptr inbounds nuw { ptr, ptr }, ptr %3, i32 0, i32 1
  store ptr %1, ptr %5, align 8
  %6 = getelementptr inbounds nuw %struct.mbedtls_pk_context, ptr %3, i32 0, i32 1
  %7 = load ptr, ptr %6, align 8, !tbaa !29
  ret ptr %7
}

; Function Attrs: mustprogress uwtable
define internal noundef i32 @_ZL13pk_get_pk_algPPhPKhP17mbedtls_pk_type_tP16mbedtls_asn1_buf(ptr noundef %0, ptr noundef %1, ptr noundef %2, ptr noundef %3) #0 {
  %5 = alloca i32, align 4
  %6 = alloca ptr, align 8
  %7 = alloca ptr, align 8
  %8 = alloca ptr, align 8
  %9 = alloca ptr, align 8
  %10 = alloca i32, align 4
  %11 = alloca %struct.mbedtls_asn1_buf, align 8
  %12 = alloca i32, align 4
  store ptr %0, ptr %6, align 8, !tbaa !3
  store ptr %1, ptr %7, align 8, !tbaa !8
  store ptr %2, ptr %8, align 8, !tbaa !21
  store ptr %3, ptr %9, align 8, !tbaa !22
  call void @llvm.lifetime.start.p0(i64 4, ptr %10) #6
  store i32 -110, ptr %10, align 4, !tbaa !12
  call void @llvm.lifetime.start.p0(i64 24, ptr %11) #6
  %13 = load ptr, ptr %9, align 8, !tbaa !22
  call void @llvm.memset.p0.i64(ptr align 8 %13, i8 0, i64 24, i1 false)
  %14 = load ptr, ptr %6, align 8, !tbaa !3
  %15 = load ptr, ptr %7, align 8, !tbaa !8
  %16 = load ptr, ptr %9, align 8, !tbaa !22
  %17 = call i32 @mbedtls_asn1_get_alg(ptr noundef %14, ptr noundef %15, ptr noundef %11, ptr noundef %16)
  store i32 %17, ptr %10, align 4, !tbaa !12
  %18 = icmp ne i32 %17, 0
  br i1 %18, label %19, label %22

19:                                               ; preds = %4
  %20 = load i32, ptr %10, align 4, !tbaa !12
  %21 = call noundef i32 @_ZL17mbedtls_error_addiiPKci(i32 noundef -14976, i32 noundef %20, ptr noundef @.str, i32 noundef 588)
  store i32 %21, ptr %5, align 4
  store i32 1, ptr %12, align 4
  br label %48

22:                                               ; preds = %4
  %23 = load ptr, ptr %8, align 8, !tbaa !21
  %24 = call i32 @mbedtls_oid_get_pk_alg(ptr noundef %11, ptr noundef %23)
  %25 = icmp ne i32 %24, 0
  br i1 %25, label %26, label %27

26:                                               ; preds = %22
  store i32 -15488, ptr %5, align 4
  store i32 1, ptr %12, align 4
  br label %48

27:                                               ; preds = %22
  %28 = load ptr, ptr %8, align 8, !tbaa !21
  %29 = load i32, ptr %28, align 4, !tbaa !14
  %30 = icmp eq i32 %29, 1
  br i1 %30, label %31, label %47

31:                                               ; preds = %27
  %32 = load ptr, ptr %9, align 8, !tbaa !22
  %33 = getelementptr inbounds nuw %struct.mbedtls_asn1_buf, ptr %32, i32 0, i32 0
  %34 = load i32, ptr %33, align 8, !tbaa !24
  %35 = icmp ne i32 %34, 5
  br i1 %35, label %36, label %41

36:                                               ; preds = %31
  %37 = load ptr, ptr %9, align 8, !tbaa !22
  %38 = getelementptr inbounds nuw %struct.mbedtls_asn1_buf, ptr %37, i32 0, i32 0
  %39 = load i32, ptr %38, align 8, !tbaa !24
  %40 = icmp ne i32 %39, 0
  br i1 %40, label %46, label %41

41:                                               ; preds = %36, %31
  %42 = load ptr, ptr %9, align 8, !tbaa !22
  %43 = getelementptr inbounds nuw %struct.mbedtls_asn1_buf, ptr %42, i32 0, i32 1
  %44 = load i64, ptr %43, align 8, !tbaa !26
  %45 = icmp ne i64 %44, 0
  br i1 %45, label %46, label %47

46:                                               ; preds = %41, %36
  store i32 -14976, ptr %5, align 4
  store i32 1, ptr %12, align 4
  br label %48

47:                                               ; preds = %41, %27
  store i32 0, ptr %5, align 4
  store i32 1, ptr %12, align 4
  br label %48

48:                                               ; preds = %47, %46, %26, %19
  call void @llvm.lifetime.end.p0(i64 24, ptr %11) #6
  call void @llvm.lifetime.end.p0(i64 4, ptr %10) #6
  %49 = load i32, ptr %5, align 4
  ret i32 %49
}

; Function Attrs: inlinehint mustprogress nounwind uwtable
define internal noundef i32 @_ZL17mbedtls_error_addiiPKci(i32 noundef %0, i32 noundef %1, ptr noundef %2, i32 noundef %3) #3 {
  %5 = alloca i32, align 4
  %6 = alloca i32, align 4
  %7 = alloca ptr, align 8
  %8 = alloca i32, align 4
  store i32 %0, ptr %5, align 4, !tbaa !12
  store i32 %1, ptr %6, align 4, !tbaa !12
  store ptr %2, ptr %7, align 8, !tbaa !8
  store i32 %3, ptr %8, align 4, !tbaa !12
  %9 = load i32, ptr %5, align 4, !tbaa !12
  %10 = load i32, ptr %6, align 4, !tbaa !12
  %11 = add nsw i32 %9, %10
  ret i32 %11
}

; Function Attrs: mustprogress uwtable
define internal noundef i32 @_ZL34pk_parse_key_pkcs8_unencrypted_derP18mbedtls_pk_contextPKhmPFiPvPhmES3_(ptr noundef %0, ptr noundef %1, i64 noundef %2, ptr noundef %3, ptr noundef %4) #0 {
  %6 = alloca i32, align 4
  %7 = alloca ptr, align 8
  %8 = alloca ptr, align 8
  %9 = alloca i64, align 8
  %10 = alloca ptr, align 8
  %11 = alloca ptr, align 8
  %12 = alloca i32, align 4
  %13 = alloca i32, align 4
  %14 = alloca i64, align 8
  %15 = alloca %struct.mbedtls_asn1_buf, align 8
  %16 = alloca ptr, align 8
  %17 = alloca ptr, align 8
  %18 = alloca i32, align 4
  %19 = alloca ptr, align 8
  %20 = alloca i32, align 4
  %21 = alloca %struct.mbedtls_pk_context, align 8
  store ptr %0, ptr %7, align 8, !tbaa !10
  store ptr %1, ptr %8, align 8, !tbaa !8
  store i64 %2, ptr %9, align 8, !tbaa !16
  store ptr %3, ptr %10, align 8, !tbaa !21
  store ptr %4, ptr %11, align 8, !tbaa !21
  call void @llvm.lifetime.start.p0(i64 4, ptr %12) #6
  call void @llvm.lifetime.start.p0(i64 4, ptr %13) #6
  call void @llvm.lifetime.start.p0(i64 8, ptr %14) #6
  call void @llvm.lifetime.start.p0(i64 24, ptr %15) #6
  call void @llvm.lifetime.start.p0(i64 8, ptr %16) #6
  %22 = load ptr, ptr %8, align 8, !tbaa !8
  store ptr %22, ptr %16, align 8, !tbaa !8
  call void @llvm.lifetime.start.p0(i64 8, ptr %17) #6
  %23 = load ptr, ptr %16, align 8, !tbaa !8
  %24 = load i64, ptr %9, align 8, !tbaa !16
  %25 = getelementptr inbounds nuw i8, ptr %23, i64 %24
  store ptr %25, ptr %17, align 8, !tbaa !8
  call void @llvm.lifetime.start.p0(i64 4, ptr %18) #6
  store i32 0, ptr %18, align 4, !tbaa !14
  call void @llvm.lifetime.start.p0(i64 8, ptr %19) #6
  %26 = load ptr, ptr %17, align 8, !tbaa !8
  %27 = call i32 @mbedtls_asn1_get_tag(ptr noundef %16, ptr noundef %26, ptr noundef %14, i32 noundef 48)
  store i32 %27, ptr %12, align 4, !tbaa !12
  %28 = icmp ne i32 %27, 0
  br i1 %28, label %29, label %32

29:                                               ; preds = %5
  %30 = load i32, ptr %12, align 4, !tbaa !12
  %31 = call noundef i32 @_ZL17mbedtls_error_addiiPKci(i32 noundef -15616, i32 noundef %30, ptr noundef @.str, i32 noundef 1037)
  store i32 %31, ptr %6, align 4
  store i32 1, ptr %20, align 4
  br label %98

32:                                               ; preds = %5
  %33 = load ptr, ptr %16, align 8, !tbaa !8
  %34 = load i64, ptr %14, align 8, !tbaa !16
  %35 = getelementptr inbounds nuw i8, ptr %33, i64 %34
  store ptr %35, ptr %17, align 8, !tbaa !8
  %36 = load ptr, ptr %17, align 8, !tbaa !8
  %37 = call i32 @mbedtls_asn1_get_int(ptr noundef %16, ptr noundef %36, ptr noundef %13)
  store i32 %37, ptr %12, align 4, !tbaa !12
  %38 = icmp ne i32 %37, 0
  br i1 %38, label %39, label %42

39:                                               ; preds = %32
  %40 = load i32, ptr %12, align 4, !tbaa !12
  %41 = call noundef i32 @_ZL17mbedtls_error_addiiPKci(i32 noundef -15616, i32 noundef %40, ptr noundef @.str, i32 noundef 1043)
  store i32 %41, ptr %6, align 4
  store i32 1, ptr %20, align 4
  br label %98

42:                                               ; preds = %32
  %43 = load i32, ptr %13, align 4, !tbaa !12
  %44 = icmp ne i32 %43, 0
  br i1 %44, label %45, label %48

45:                                               ; preds = %42
  %46 = load i32, ptr %12, align 4, !tbaa !12
  %47 = call noundef i32 @_ZL17mbedtls_error_addiiPKci(i32 noundef -15744, i32 noundef %46, ptr noundef @.str, i32 noundef 1046)
  store i32 %47, ptr %6, align 4
  store i32 1, ptr %20, align 4
  br label %98

48:                                               ; preds = %42
  %49 = load ptr, ptr %17, align 8, !tbaa !8
  %50 = call noundef i32 @_ZL13pk_get_pk_algPPhPKhP17mbedtls_pk_type_tP16mbedtls_asn1_buf(ptr noundef %16, ptr noundef %49, ptr noundef %18, ptr noundef %15)
  store i32 %50, ptr %12, align 4, !tbaa !12
  %51 = icmp ne i32 %50, 0
  br i1 %51, label %52, label %54

52:                                               ; preds = %48
  %53 = load i32, ptr %12, align 4, !tbaa !12
  store i32 %53, ptr %6, align 4
  store i32 1, ptr %20, align 4
  br label %98

54:                                               ; preds = %48
  %55 = load ptr, ptr %17, align 8, !tbaa !8
  %56 = call i32 @mbedtls_asn1_get_tag(ptr noundef %16, ptr noundef %55, ptr noundef %14, i32 noundef 4)
  store i32 %56, ptr %12, align 4, !tbaa !12
  %57 = icmp ne i32 %56, 0
  br i1 %57, label %58, label %61

58:                                               ; preds = %54
  %59 = load i32, ptr %12, align 4, !tbaa !12
  %60 = call noundef i32 @_ZL17mbedtls_error_addiiPKci(i32 noundef -15616, i32 noundef %59, ptr noundef @.str, i32 noundef 1054)
  store i32 %60, ptr %6, align 4
  store i32 1, ptr %20, align 4
  br label %98

61:                                               ; preds = %54
  %62 = load i64, ptr %14, align 8, !tbaa !16
  %63 = icmp ult i64 %62, 1
  br i1 %63, label %64, label %66

64:                                               ; preds = %61
  %65 = call noundef i32 @_ZL17mbedtls_error_addiiPKci(i32 noundef -15616, i32 noundef -96, ptr noundef @.str, i32 noundef 1058)
  store i32 %65, ptr %6, align 4
  store i32 1, ptr %20, align 4
  br label %98

66:                                               ; preds = %61
  %67 = load i32, ptr %18, align 4, !tbaa !14
  %68 = call ptr @mbedtls_pk_info_from_type(i32 noundef %67)
  store ptr %68, ptr %19, align 8, !tbaa !18
  %69 = icmp eq ptr %68, null
  br i1 %69, label %70, label %71

70:                                               ; preds = %66
  store i32 -15488, ptr %6, align 4
  store i32 1, ptr %20, align 4
  br label %98

71:                                               ; preds = %66
  %72 = load ptr, ptr %7, align 8, !tbaa !10
  %73 = load ptr, ptr %19, align 8, !tbaa !18
  %74 = call i32 @mbedtls_pk_setup(ptr noundef %72, ptr noundef %73)
  store i32 %74, ptr %12, align 4, !tbaa !12
  %75 = icmp ne i32 %74, 0
  br i1 %75, label %76, label %78

76:                                               ; preds = %71
  %77 = load i32, ptr %12, align 4, !tbaa !12
  store i32 %77, ptr %6, align 4
  store i32 1, ptr %20, align 4
  br label %98

78:                                               ; preds = %71
  %79 = load i32, ptr %18, align 4, !tbaa !14
  %80 = icmp eq i32 %79, 1
  br i1 %80, label %81, label %96

81:                                               ; preds = %78
  %82 = load ptr, ptr %7, align 8, !tbaa !10
  call void @llvm.memcpy.p0.p0.i64(ptr align 8 %21, ptr align 8 %82, i64 16, i1 false), !tbaa.struct !20
  %83 = getelementptr inbounds nuw { ptr, ptr }, ptr %21, i32 0, i32 0
  %84 = load ptr, ptr %83, align 8
  %85 = getelementptr inbounds nuw { ptr, ptr }, ptr %21, i32 0, i32 1
  %86 = load ptr, ptr %85, align 8
  %87 = call noundef ptr @_ZL14mbedtls_pk_rsa18mbedtls_pk_context(ptr %84, ptr %86)
  %88 = load ptr, ptr %16, align 8, !tbaa !8
  %89 = load i64, ptr %14, align 8, !tbaa !16
  %90 = call noundef i32 @_ZL22pk_parse_key_pkcs1_derP19mbedtls_rsa_contextPKhm(ptr noundef %87, ptr noundef %88, i64 noundef %89)
  store i32 %90, ptr %12, align 4, !tbaa !12
  %91 = icmp ne i32 %90, 0
  br i1 %91, label %92, label %95

92:                                               ; preds = %81
  %93 = load ptr, ptr %7, align 8, !tbaa !10
  call void @mbedtls_pk_free(ptr noundef %93)
  %94 = load i32, ptr %12, align 4, !tbaa !12
  store i32 %94, ptr %6, align 4
  store i32 1, ptr %20, align 4
  br label %98

95:                                               ; preds = %81
  br label %97

96:                                               ; preds = %78
  store i32 -15488, ptr %6, align 4
  store i32 1, ptr %20, align 4
  br label %98

97:                                               ; preds = %95
  store i32 0, ptr %6, align 4
  store i32 1, ptr %20, align 4
  br label %98

98:                                               ; preds = %97, %96, %92, %76, %70, %64, %58, %52, %45, %39, %29
  call void @llvm.lifetime.end.p0(i64 8, ptr %19) #6
  call void @llvm.lifetime.end.p0(i64 4, ptr %18) #6
  call void @llvm.lifetime.end.p0(i64 8, ptr %17) #6
  call void @llvm.lifetime.end.p0(i64 8, ptr %16) #6
  call void @llvm.lifetime.end.p0(i64 24, ptr %15) #6
  call void @llvm.lifetime.end.p0(i64 8, ptr %14) #6
  call void @llvm.lifetime.end.p0(i64 4, ptr %13) #6
  call void @llvm.lifetime.end.p0(i64 4, ptr %12) #6
  %99 = load i32, ptr %6, align 4
  ret i32 %99
}