; Function Attrs: mustprogress uwtable
define internal fastcc noundef i32 @_ZL34pk_parse_key_pkcs8_unencrypted_derP18mbedtls_pk_contextPKhmPFiPvPhmES3_(ptr noundef %0, ptr noundef %1, i64 noundef %2) unnamed_addr #0 {
  %4 = alloca %struct.mbedtls_asn1_buf, align 8
  %5 = alloca i32, align 4
  %6 = alloca i64, align 8
  %7 = alloca %struct.mbedtls_asn1_buf, align 8
  %8 = alloca ptr, align 8
  %9 = alloca i32, align 4
  call void @llvm.lifetime.start.p0(i64 4, ptr nonnull %5) #4
  call void @llvm.lifetime.start.p0(i64 8, ptr nonnull %6) #4
  call void @llvm.lifetime.start.p0(i64 24, ptr nonnull %7) #4
  call void @llvm.lifetime.start.p0(i64 8, ptr nonnull %8) #4
  store ptr %1, ptr %8, align 8, !tbaa !7
  %10 = getelementptr inbounds nuw i8, ptr %1, i64 %2
  call void @llvm.lifetime.start.p0(i64 4, ptr nonnull %9) #4
  store i32 0, ptr %9, align 4, !tbaa !3
  %11 = call i32 @mbedtls_asn1_get_tag(ptr noundef nonnull %8, ptr noundef %10, ptr noundef nonnull %6, i32 noundef 48)
  %.not = icmp eq i32 %11, 0
  br i1 %.not, label %14, label %12

12:                                               ; preds = %3
  %13 = add nsw i32 %11, -15616
  br label %57

14:                                               ; preds = %3
  %15 = load ptr, ptr %8, align 8, !tbaa !7
  %16 = load i64, ptr %6, align 8, !tbaa !10
  %17 = getelementptr inbounds nuw i8, ptr %15, i64 %16
  %18 = call i32 @mbedtls_asn1_get_int(ptr noundef nonnull %8, ptr noundef %17, ptr noundef nonnull %5)
  %.not24 = icmp eq i32 %18, 0
  br i1 %.not24, label %21, label %19

19:                                               ; preds = %14
  %20 = add nsw i32 %18, -15616
  br label %57

21:                                               ; preds = %14
  %22 = load i32, ptr %5, align 4, !tbaa !21
  %.not25 = icmp eq i32 %22, 0
  br i1 %.not25, label %23, label %57

23:                                               ; preds = %21
  call void @llvm.lifetime.start.p0(i64 24, ptr nonnull %4) #4
  call void @llvm.memset.p0.i64(ptr noundef nonnull align 8 dereferenceable(24) %7, i8 0, i64 24, i1 false)
  %24 = call i32 @mbedtls_asn1_get_alg(ptr noundef nonnull %8, ptr noundef %17, ptr noundef nonnull %4, ptr noundef nonnull %7)
  %.not.i = icmp eq i32 %24, 0
  br i1 %.not.i, label %25, label %_ZL13pk_get_pk_algPPhPKhP17mbedtls_pk_type_tP16mbedtls_asn1_buf.exit

25:                                               ; preds = %23
  %26 = call i32 @mbedtls_oid_get_pk_alg(ptr noundef nonnull %4, ptr noundef nonnull %9)
  %.not12.i = icmp eq i32 %26, 0
  br i1 %.not12.i, label %27, label %_ZL13pk_get_pk_algPPhPKhP17mbedtls_pk_type_tP16mbedtls_asn1_buf.exit.thread

27:                                               ; preds = %25
  %28 = load i32, ptr %9, align 4, !tbaa !3
  %29 = icmp eq i32 %28, 1
  br i1 %29, label %30, label %_ZL13pk_get_pk_algPPhPKhP17mbedtls_pk_type_tP16mbedtls_asn1_buf.exit.thread3

30:                                               ; preds = %27
  %31 = load i32, ptr %7, align 8, !tbaa !12
  switch i32 %31, label %_ZL13pk_get_pk_algPPhPKhP17mbedtls_pk_type_tP16mbedtls_asn1_buf.exit.thread [
    i32 5, label %32
    i32 0, label %32
  ]

32:                                               ; preds = %30, %30
  %33 = getelementptr inbounds nuw i8, ptr %7, i64 8
  %34 = load i64, ptr %33, align 8, !tbaa !15
  %.not15.i = icmp eq i64 %34, 0
  br i1 %.not15.i, label %_ZL13pk_get_pk_algPPhPKhP17mbedtls_pk_type_tP16mbedtls_asn1_buf.exit.thread3, label %_ZL13pk_get_pk_algPPhPKhP17mbedtls_pk_type_tP16mbedtls_asn1_buf.exit.thread

_ZL13pk_get_pk_algPPhPKhP17mbedtls_pk_type_tP16mbedtls_asn1_buf.exit.thread3: ; preds = %27, %32
  call void @llvm.lifetime.end.p0(i64 24, ptr nonnull %4) #4
  br label %36

_ZL13pk_get_pk_algPPhPKhP17mbedtls_pk_type_tP16mbedtls_asn1_buf.exit.thread: ; preds = %25, %30, %32
  %.0.i.ph = phi i32 [ -14976, %32 ], [ -14976, %30 ], [ -15488, %25 ]
  call void @llvm.lifetime.end.p0(i64 24, ptr nonnull %4) #4
  br label %57

_ZL13pk_get_pk_algPPhPKhP17mbedtls_pk_type_tP16mbedtls_asn1_buf.exit: ; preds = %23
  %35 = add nsw i32 %24, -14976
  call void @llvm.lifetime.end.p0(i64 24, ptr nonnull %4) #4
  %.not26 = icmp eq i32 %35, 0
  br i1 %.not26, label %36, label %57

36:                                               ; preds = %_ZL13pk_get_pk_algPPhPKhP17mbedtls_pk_type_tP16mbedtls_asn1_buf.exit.thread3, %_ZL13pk_get_pk_algPPhPKhP17mbedtls_pk_type_tP16mbedtls_asn1_buf.exit
  %37 = call i32 @mbedtls_asn1_get_tag(ptr noundef nonnull %8, ptr noundef %17, ptr noundef nonnull %6, i32 noundef 4)
  %.not27 = icmp eq i32 %37, 0
  br i1 %.not27, label %40, label %38

38:                                               ; preds = %36
  %39 = add nsw i32 %37, -15616
  br label %57

40:                                               ; preds = %36
  %41 = load i64, ptr %6, align 8, !tbaa !10
  %42 = icmp eq i64 %41, 0
  br i1 %42, label %57, label %43

43:                                               ; preds = %40
  %44 = load i32, ptr %9, align 4, !tbaa !3
  %45 = call ptr @mbedtls_pk_info_from_type(i32 noundef %44)
  %46 = icmp eq ptr %45, null
  br i1 %46, label %57, label %47

47:                                               ; preds = %43
  %48 = call i32 @mbedtls_pk_setup(ptr noundef %0, ptr noundef nonnull %45)
  %.not28 = icmp eq i32 %48, 0
  br i1 %.not28, label %49, label %57

49:                                               ; preds = %47
  %50 = load i32, ptr %9, align 4, !tbaa !3
  %51 = icmp eq i32 %50, 1
  br i1 %51, label %52, label %57

52:                                               ; preds = %49
  %.sroa.2.0..sroa_idx = getelementptr inbounds nuw i8, ptr %0, i64 8
  %.sroa.2.0.copyload = load ptr, ptr %.sroa.2.0..sroa_idx, align 8, !tbaa !16
  %53 = load ptr, ptr %8, align 8, !tbaa !7
  %54 = load i64, ptr %6, align 8, !tbaa !10
  %55 = call fastcc noundef i32 @_ZL22pk_parse_key_pkcs1_derP19mbedtls_rsa_contextPKhm(ptr noundef %.sroa.2.0.copyload, ptr noundef %53, i64 noundef %54)
  %.not29 = icmp eq i32 %55, 0
  br i1 %.not29, label %57, label %56

56:                                               ; preds = %52
  call void @mbedtls_pk_free(ptr noundef nonnull %0)
  br label %57

57:                                               ; preds = %40, %_ZL13pk_get_pk_algPPhPKhP17mbedtls_pk_type_tP16mbedtls_asn1_buf.exit.thread, %21, %52, %49, %47, %43, %_ZL13pk_get_pk_algPPhPKhP17mbedtls_pk_type_tP16mbedtls_asn1_buf.exit, %56, %38, %19, %12
  %.0 = phi i32 [ %13, %12 ], [ %20, %19 ], [ %39, %38 ], [ %55, %56 ], [ %35, %_ZL13pk_get_pk_algPPhPKhP17mbedtls_pk_type_tP16mbedtls_asn1_buf.exit ], [ -15488, %43 ], [ %48, %47 ], [ -15488, %49 ], [ 0, %52 ], [ -15744, %21 ], [ %.0.i.ph, %_ZL13pk_get_pk_algPPhPKhP17mbedtls_pk_type_tP16mbedtls_asn1_buf.exit.thread ], [ -15712, %40 ]
  call void @llvm.lifetime.end.p0(i64 4, ptr nonnull %9) #4
  call void @llvm.lifetime.end.p0(i64 8, ptr nonnull %8) #4
  call void @llvm.lifetime.end.p0(i64 24, ptr nonnull %7) #4
  call void @llvm.lifetime.end.p0(i64 8, ptr nonnull %6) #4
  call void @llvm.lifetime.end.p0(i64 4, ptr nonnull %5) #4
  ret i32 %.0
}